; Function Attrs: mustprogress uwtable
define internal void @_ZN9grpc_core12_GLOBAL__N_143grpc_httpcli_ssl_channel_security_connector15add_handshakersERKNS_11ChannelArgsEP16grpc_pollset_setPNS_16HandshakeManagerE(ptr noundef nonnull align 8 dereferenceable(72) %this, ptr noundef nonnull align 8 dereferenceable(8) %args, ptr nocapture readnone %0, ptr noundef %handshake_mgr) unnamed_addr #3 align 2 personality ptr @__gxx_personality_v0 {
entry:
  %handshaker = alloca ptr, align 8
  %agg.tmp = alloca %"class.grpc_core::RefCountedPtr.31", align 8
  store ptr null, ptr %handshaker, align 8
  %handshaker_factory_ = getelementptr inbounds i8, ptr %this, i64 56
  %1 = load ptr, ptr %handshaker_factory_, align 8
  %cmp.not = icmp eq ptr %1, null
  br i1 %cmp.not, label %if.end6, label %if.then

if.then:                                          ; preds = %entry
  %secure_peer_name_ = getelementptr inbounds i8, ptr %this, i64 64
  %2 = load ptr, ptr %secure_peer_name_, align 8
  %call = call noundef i32 @_Z51tsi_ssl_client_handshaker_factory_create_handshakerP33tsi_ssl_client_handshaker_factoryPKcmmPP14tsi_handshaker(ptr noundef nonnull %1, ptr noundef %2, i64 noundef 0, i64 noundef 0, ptr noundef nonnull %handshaker)
  %cmp3.not = icmp eq i32 %call, 0
  br i1 %cmp3.not, label %if.end6, label %if.then4

if.then4:                                         ; preds = %if.then
  %call5 = call noundef ptr @_Z20tsi_result_to_string10tsi_result(i32 noundef %call)
  call void (ptr, i32, i32, ptr, ...) @gpr_log(ptr noundef nonnull @.str, i32 noundef 97, i32 noundef 2, ptr noundef nonnull @.str.9, ptr noundef %call5)
  br label %if.end6

if.end6:                                          ; preds = %if.then, %if.then4, %entry
  %3 = load ptr, ptr %handshaker, align 8
  call void @_ZN9grpc_core24SecurityHandshakerCreateEP14tsi_handshakerP23grpc_security_connectorRKNS_11ChannelArgsE(ptr nonnull sret(%"class.grpc_core::RefCountedPtr.31") align 8 %agg.tmp, ptr noundef %3, ptr noundef nonnull %this, ptr noundef nonnull align 8 dereferenceable(8) %args)
  invoke void @_ZN9grpc_core16HandshakeManager3AddENS_13RefCountedPtrINS_10HandshakerEEE(ptr noundef nonnull align 8 dereferenceable(216) %handshake_mgr, ptr noundef nonnull %agg.tmp)
          to label %invoke.cont unwind label %lpad

invoke.cont:                                      ; preds = %if.end6
  %4 = load ptr, ptr %agg.tmp, align 8
  %cmp.not.i = icmp eq ptr %4, null
  br i1 %cmp.not.i, label %_ZN9grpc_core13RefCountedPtrINS_10HandshakerEED2Ev.exit, label %if.then.i

if.then.i:                                        ; preds = %invoke.cont
  %refs_.i.i = getelementptr inbounds i8, ptr %4, i64 8
  %5 = atomicrmw sub ptr %refs_.i.i, i64 1 acq_rel, align 8
  %cmp.i.i.i = icmp eq i64 %5, 1
  br i1 %cmp.i.i.i, label %if.then.i.i, label %_ZN9grpc_core13RefCountedPtrINS_10HandshakerEED2Ev.exit

if.then.i.i:                                      ; preds = %if.then.i
  %vtable.i.i.i = load ptr, ptr %4, align 8
  %vfn.i.i.i = getelementptr inbounds i8, ptr %vtable.i.i.i, i64 8
  %6 = load ptr, ptr %vfn.i.i.i, align 8
  call void %6(ptr noundef nonnull align 8 dereferenceable(16) %4) #19
  br label %_ZN9grpc_core13RefCountedPtrINS_10HandshakerEED2Ev.exit

_ZN9grpc_core13RefCountedPtrINS_10HandshakerEED2Ev.exit: ; preds = %invoke.cont, %if.then.i, %if.then.i.i
  ret void

lpad:                                             ; preds = %if.end6
  %7 = landingpad { ptr, i32 }
          cleanup
  %8 = load ptr, ptr %agg.tmp, align 8
  %cmp.not.i2 = icmp eq ptr %8, null
  br i1 %cmp.not.i2, label %_ZN9grpc_core13RefCountedPtrINS_10HandshakerEED2Ev.exit9, label %if.then.i3

if.then.i3:                                       ; preds = %lpad
  %refs_.i.i4 = getelementptr inbounds i8, ptr %8, i64 8
  %9 = atomicrmw sub ptr %refs_.i.i4, i64 1 acq_rel, align 8
  %cmp.i.i.i5 = icmp eq i64 %9, 1
  br i1 %cmp.i.i.i5, label %if.then.i.i6, label %_ZN9grpc_core13RefCountedPtrINS_10HandshakerEED2Ev.exit9

if.then.i.i6:                                     ; preds = %if.then.i3
  %vtable.i.i.i7 = load ptr, ptr %8, align 8
  %vfn.i.i.i8 = getelementptr inbounds i8, ptr %vtable.i.i.i7, i64 8
  %10 = load ptr, ptr %vfn.i.i.i8, align 8
  call void %10(ptr noundef nonnull align 8 dereferenceable(16) %8) #19
  br label %_ZN9grpc_core13RefCountedPtrINS_10HandshakerEED2Ev.exit9

_ZN9grpc_core13RefCountedPtrINS_10HandshakerEED2Ev.exit9: ; preds = %lpad, %if.then.i3, %if.then.i.i6
  resume { ptr, i32 } %7
}